(dp0
S'char_rnn_32'
p1
(lp2
(dp3
S'y'
p4
F39.810717055349734
sS'x'
p5
S'2016-04-03 22:31:08.299120'
p6
sa(dp7
g4
F39.4919115521757
sg5
S'2016-04-03 22:31:08.299133'
p8
sa(dp9
g4
F39.17246133441246
sg5
S'2016-04-03 22:31:08.299137'
p10
sa(dp11
g4
F38.852358499261385
sg5
S'2016-04-03 22:31:08.299139'
p12
sa(dp13
g4
F38.53159496449108
sg5
S'2016-04-03 22:31:08.299142'
p14
sa(dp15
g4
F38.210162462449645
sg5
S'2016-04-03 22:31:08.299145'
p16
sa(dp17
g4
F37.88805253381191
sg5
S'2016-04-03 22:31:08.299147'
p18
sa(dp19
g4
F37.56525652104698
sg5
S'2016-04-03 22:31:08.299150'
p20
sa(dp21
g4
F37.24176556159046
sg5
S'2016-04-03 22:31:08.299152'
p22
sa(dp23
g4
F36.9175705807045
sg5
S'2016-04-03 22:31:08.299155'
p24
sa(dp25
g4
F36.59266228400805
sg5
S'2016-04-03 22:31:08.299158'
p26
sa(dp27
g4
F36.26703114965799
sg5
S'2016-04-03 22:31:08.299160'
p28
sa(dp29
g4
F35.940667420160906
sg5
S'2016-04-03 22:31:08.299162'
p30
sa(dp31
g4
F35.613561093793564
sg5
S'2016-04-03 22:31:08.299165'
p32
sa(dp33
g4
F35.28570191560863
sg5
S'2016-04-03 22:31:08.299167'
p34
sa(dp35
g4
F34.95707936800063
sg5
S'2016-04-03 22:31:08.299169'
p36
sa(dp37
g4
F34.62768266080517
sg5
S'2016-04-03 22:31:08.299172'
p38
sa(dp39
g4
F34.29750072090244
sg5
S'2016-04-03 22:31:08.299175'
p40
sa(dp41
g4
F33.96652218129394
sg5
S'2016-04-03 22:31:08.299177'
p42
sa(dp43
g4
F33.63473536961897
sg5
S'2016-04-03 22:31:08.299179'
p44
sa(dp45
g4
F33.30212829607493
sg5
S'2016-04-03 22:31:08.299182'
p46
sa(dp47
g4
F32.96868864070247
sg5
S'2016-04-03 22:31:08.299184'
p48
sa(dp49
g4
F32.63440373999379
sg5
S'2016-04-03 22:31:08.299186'
p50
sa(dp51
g4
F32.299260572778856
sg5
S'2016-04-03 22:31:08.299189'
p52
sa(dp53
g4
F31.96324574534057
sg5
S'2016-04-03 22:31:08.299191'
p54
sa(dp55
g4
F31.626345475706252
sg5
S'2016-04-03 22:31:08.299194'
p56
sa(dp57
g4
F31.28854557705816
sg5
S'2016-04-03 22:31:08.299196'
p58
sa(dp59
g4
F30.94983144020095
sg5
S'2016-04-03 22:31:08.299199'
p60
sa(dp61
g4
F30.610188015018984
sg5
S'2016-04-03 22:31:08.299201'
p62
sa(dp63
g4
F30.269599790850272
sg5
S'2016-04-03 22:31:08.299203'
p64
sa(dp65
g4
F29.928050775697603
sg5
S'2016-04-03 22:31:08.299206'
p66
sa(dp67
g4
F29.585524474190418
sg5
S'2016-04-03 22:31:08.299208'
p68
sa(dp69
g4
F29.242003864203042
sg5
S'2016-04-03 22:31:08.299210'
p70
sa(dp71
g4
F28.89747137202636
sg5
S'2016-04-03 22:31:08.299213'
p72
sa(dp73
g4
F28.55190884598056
sg5
S'2016-04-03 22:31:08.299215'
p74
sa(dp75
g4
F28.205297528345778
sg5
S'2016-04-03 22:31:08.299217'
p76
sa(dp77
g4
F27.85761802547598
sg5
S'2016-04-03 22:31:08.299220'
p78
sa(dp79
g4
F27.508850275948053
sg5
S'2016-04-03 22:31:08.299223'
p80
sa(dp81
g4
F27.158973516583814
sg5
S'2016-04-03 22:31:08.299225'
p82
sa(dp83
g4
F26.80796624616603
sg5
S'2016-04-03 22:31:08.299227'
p84
sa(dp85
g4
F26.45580618665162
sg5
S'2016-04-03 22:31:08.299229'
p86
sa(dp87
g4
F26.102470241664697
sg5
S'2016-04-03 22:31:08.299232'
p88
sa(dp89
g4
F25.74793445202917
sg5
S'2016-04-03 22:31:08.299234'
p90
sa(dp91
g4
F25.392173948075055
sg5
S'2016-04-03 22:31:08.299236'
p92
sa(dp93
g4
F25.03516289842348
sg5
S'2016-04-03 22:31:08.299239'
p94
sa(dp95
g4
F24.676874454922782
sg5
S'2016-04-03 22:31:08.299241'
p96
sa(dp97
g4
F24.317280693371046
sg5
S'2016-04-03 22:31:08.299243'
p98
sa(dp99
g4
F23.956352549618355
sg5
S'2016-04-03 22:31:08.299246'
p100
sa(dp101
g4
F23.59405975059458
sg5
S'2016-04-03 22:31:08.299248'
p102
sa(dp103
g4
F23.230370739754015
sg5
S'2016-04-03 22:31:08.299250'
p104
sa(dp105
g4
F22.86525259636632
sg5
S'2016-04-03 22:31:08.299253'
p106
sa(dp107
g4
F22.498670948012276
sg5
S'2016-04-03 22:31:08.299255'
p108
sa(dp109
g4
F22.13058987556147
sg5
S'2016-04-03 22:31:08.299257'
p110
sa(dp111
g4
F21.76097180981549
sg5
S'2016-04-03 22:31:08.299259'
p112
sa(dp113
g4
F21.389777418892095
sg5
S'2016-04-03 22:31:08.299262'
p114
sa(dp115
g4
F21.016965485301043
sg5
S'2016-04-03 22:31:08.299264'
p116
sa(dp117
g4
F20.642492771517183
sg5
S'2016-04-03 22:31:08.299266'
p118
sa(dp119
g4
F20.266313872687675
sg5
S'2016-04-03 22:31:08.299269'
p120
sa(dp121
g4
F19.888381054913122
sg5
S'2016-04-03 22:31:08.299271'
p122
sa(dp123
g4
F19.508644077311324
sg5
S'2016-04-03 22:31:08.299274'
p124
sa(dp125
g4
F19.127049995800743
sg5
S'2016-04-03 22:31:08.299276'
p126
sa(dp127
g4
F18.74354294621998
sg5
S'2016-04-03 22:31:08.299278'
p128
sa(dp129
g4
F18.358063904019343
sg5
S'2016-04-03 22:31:08.299280'
p130
sa(dp131
g4
F17.97055041730823
sg5
S'2016-04-03 22:31:08.299283'
p132
sa(dp133
g4
F17.580936309501134
sg5
S'2016-04-03 22:31:08.299285'
p134
sa(dp135
g4
F17.189151347155786
sg5
S'2016-04-03 22:31:08.299287'
p136
sa(dp137
g4
F16.795120867813488
sg5
S'2016-04-03 22:31:08.299290'
p138
sa(dp139
g4
F16.398765361701578
sg5
S'2016-04-03 22:31:08.299292'
p140
sa(dp141
g4
F16.000000000000004
sg5
S'2016-04-03 22:31:08.299294'
p142
sa(dp143
g4
F15.598734100953934
sg5
S'2016-04-03 22:31:08.299296'
p144
sa(dp145
g4
F15.194870523363548
sg5
S'2016-04-03 22:31:08.299299'
p146
sa(dp147
g4
F14.788304974808696
sg5
S'2016-04-03 22:31:08.299301'
p148
sa(dp149
g4
F14.378925219250926
sg5
S'2016-04-03 22:31:08.299303'
p150
sa(dp151
g4
F13.966610165238238
sg5
S'2016-04-03 22:31:08.299306'
p152
sa(dp153
g4
F13.551228811604874
sg5
S'2016-04-03 22:31:08.299308'
p154
sa(dp155
g4
F13.132639022018838
sg5
S'2016-04-03 22:31:08.299311'
p156
sa(dp157
g4
F12.71068609258575
sg5
S'2016-04-03 22:31:08.299313'
p158
sa(dp159
g4
F12.285201067417038
sg5
S'2016-04-03 22:31:08.299315'
p160
sa(dp161
g4
F11.855998744839987
sg5
S'2016-04-03 22:31:08.299317'
p162
sa(dp163
g4
F11.42287530066645
sg5
S'2016-04-03 22:31:08.299320'
p164
sa(dp165
g4
F10.98560543306118
sg5
S'2016-04-03 22:31:08.299322'
p166
sa(dp167
g4
F10.543938903738733
sg5
S'2016-04-03 22:31:08.299324'
p168
sa(dp169
g4
F10.097596309015797
sg5
S'2016-04-03 22:31:08.299327'
p170
sa(dp171
g4
F9.646263856416864
sg5
S'2016-04-03 22:31:08.299329'
p172
sa(dp173
g4
F9.18958683997628
sg5
S'2016-04-03 22:31:08.299331'
p174
sa(dp175
g4
F8.727161387290321
sg5
S'2016-04-03 22:31:08.299334'
p176
sa(dp177
g4
F8.258523872989459
sg5
S'2016-04-03 22:31:08.299336'
p178
sa(dp179
g4
F7.783137122039472
sg5
S'2016-04-03 22:31:08.299338'
p180
sa(dp181
g4
F7.30037210271847
sg5
S'2016-04-03 22:31:08.299340'
p182
sa(dp183
g4
F6.809483127522302
sg5
S'2016-04-03 22:31:08.299343'
p184
sa(dp185
g4
F6.309573444801933
sg5
S'2016-04-03 22:31:08.299345'
p186
sa(dp187
g4
F5.799546134795289
sg5
S'2016-04-03 22:31:08.299348'
p188
sa(dp189
g4
F5.278031643091578
sg5
S'2016-04-03 22:31:08.299350'
p190
sa(dp191
g4
F4.743276393803367
sg5
S'2016-04-03 22:31:08.299352'
p192
sa(dp193
g4
F4.192962712629476
sg5
S'2016-04-03 22:31:08.299355'
p194
sa(dp195
g4
F3.623898318388478
sg5
S'2016-04-03 22:31:08.299357'
p196
sa(dp197
g4
F3.0314331330207964
sg5
S'2016-04-03 22:31:08.299359'
p198
sa(dp199
g4
F2.4082246852806923
sg5
S'2016-04-03 22:31:08.299361'
p200
sa(dp201
g4
F1.7411011265922482
sg5
S'2016-04-03 22:31:08.299364'
p202
sa(dp203
g4
F1.0
sg5
S'2016-04-03 22:31:08.299366'
p204
sasS'char_rnn_64'
p205
(lp206
(dp207
g4
F15.848931924611133
sg5
S'2016-04-03 22:31:08.299370'
p208
sa(dp209
g4
F15.753647252978462
sg5
S'2016-04-03 22:31:08.299373'
p210
sa(dp211
g4
F15.657976806082024
sg5
S'2016-04-03 22:31:08.299385'
p212
sa(dp213
g4
F15.561915061393067
sg5
S'2016-04-03 22:31:08.299387'
p214
sa(dp215
g4
F15.4654563594541
sg5
S'2016-04-03 22:31:08.299389'
p216
sa(dp217
g4
F15.368594899018897
sg5
S'2016-04-03 22:31:08.299392'
p218
sa(dp219
g4
F15.271324731966917
sg5
S'2016-04-03 22:31:08.299405'
p220
sa(dp221
g4
F15.173639757979165
sg5
S'2016-04-03 22:31:08.299407'
p222
sa(dp223
g4
F15.075533718961573
sg5
S'2016-04-03 22:31:08.299409'
p224
sa(dp225
g4
F14.977000193201075
sg5
S'2016-04-03 22:31:08.299412'
p226
sa(dp227
g4
F14.878032589238492
sg5
S'2016-04-03 22:31:08.299414'
p228
sa(dp229
g4
F14.778624139441147
sg5
S'2016-04-03 22:31:08.299416'
p230
sa(dp231
g4
F14.67876789325699
sg5
S'2016-04-03 22:31:08.299419'
p232
sa(dp233
g4
F14.578456710130645
sg5
S'2016-04-03 22:31:08.299421'
p234
sa(dp235
g4
F14.477683252060297
sg5
S'2016-04-03 22:31:08.299423'
p236
sa(dp237
g4
F14.376439975772874
sg5
S'2016-04-03 22:31:08.299426'
p238
sa(dp239
g4
F14.27471912449317
sg5
S'2016-04-03 22:31:08.299437'
p240
sa(dp241
g4
F14.172512719280757
sg5
S'2016-04-03 22:31:08.299440'
p242
sa(dp243
g4
F14.069812549906494
sg5
S'2016-04-03 22:31:08.299442'
p244
sa(dp245
g4
F13.966610165238235
sg5
S'2016-04-03 22:31:08.299444'
p246
sa(dp247
g4
F13.862896863102927
sg5
S'2016-04-03 22:31:08.299457'
p248
sa(dp249
g4
F13.758663679589663
sg5
S'2016-04-03 22:31:08.299460'
p250
sa(dp251
g4
F13.65390137775539
sg5
S'2016-04-03 22:31:08.299462'
p252
sa(dp253
g4
F13.548600435691771
sg5
S'2016-04-03 22:31:08.299464'
p254
sa(dp255
g4
F13.442751033908307
sg5
S'2016-04-03 22:31:08.299466'
p256
sa(dp257
g4
F13.336343041983
sg5
S'2016-04-03 22:31:08.299469'
p258
sa(dp259
g4
F13.229366004427638
sg5
S'2016-04-03 22:31:08.299471'
p260
sa(dp261
g4
F13.121809125710284
sg5
S'2016-04-03 22:31:08.299474'
p262
sa(dp263
g4
F13.013661254372382
sg5
S'2016-04-03 22:31:08.299485'
p264
sa(dp265
g4
F12.904910866172427
sg5
S'2016-04-03 22:31:08.299488'
p266
sa(dp267
g4
F12.795546046181906
sg5
S'2016-04-03 22:31:08.299490'
p268
sa(dp269
g4
F12.685554469752462
sg5
S'2016-04-03 22:31:08.299492'
p270
sa(dp271
g4
F12.574923382265665
sg5
S'2016-04-03 22:31:08.299505'
p272
sa(dp273
g4
F12.463639577568397
sg5
S'2016-04-03 22:31:08.299507'
p274
sa(dp275
g4
F12.351689374987613
sg5
S'2016-04-03 22:31:08.299510'
p276
sa(dp277
g4
F12.239058594807817
sg5
S'2016-04-03 22:31:08.299512'
p278
sa(dp279
g4
F12.125732532083184
sg5
S'2016-04-03 22:31:08.299514'
p280
sa(dp281
g4
F12.011695928643285
sg5
S'2016-04-03 22:31:08.299517'
p282
sa(dp283
g4
F11.896932943137108
sg5
S'2016-04-03 22:31:08.299519'
p284
sa(dp285
g4
F11.781427118943881
sg5
S'2016-04-03 22:31:08.299521'
p286
sa(dp287
g4
F11.66516134976123
sg5
S'2016-04-03 22:31:08.299524'
p288
sa(dp289
g4
F11.54811784266086
sg5
S'2016-04-03 22:31:08.299526'
p290
sa(dp291
g4
F11.430278078379146
sg5
S'2016-04-03 22:31:08.299528'
p292
sa(dp293
g4
F11.311622768584233
sg5
S'2016-04-03 22:31:08.299531'
p294
sa(dp295
g4
F11.192131809832128
sg5
S'2016-04-03 22:31:08.299533'
p296
sa(dp297
g4
F11.071784233891279
sg5
S'2016-04-03 22:31:08.299535'
p298
sa(dp299
g4
F10.950558154077703
sg5
S'2016-04-03 22:31:08.299538'
p300
sa(dp301
g4
F10.828430707200106
sg5
S'2016-04-03 22:31:08.299540'
p302
sa(dp303
g4
F10.705377990665902
sg5
S'2016-04-03 22:31:08.299542'
p304
sa(dp305
g4
F10.581374994243516
sg5
S'2016-04-03 22:31:08.299545'
p306
sa(dp307
g4
F10.45639552591273
sg5
S'2016-04-03 22:31:08.299547'
p308
sa(dp309
g4
F10.330412131161864
sg5
S'2016-04-03 22:31:08.299549'
p310
sa(dp311
g4
F10.203396005006326
sg5
S'2016-04-03 22:31:08.299552'
p312
sa(dp313
g4
F10.075316895906049
sg5
S'2016-04-03 22:31:08.299554'
p314
sa(dp315
g4
F9.946143000646652
sg5
S'2016-04-03 22:31:08.299556'
p316
sa(dp317
g4
F9.81584084911856
sg5
S'2016-04-03 22:31:08.299559'
p318
sa(dp319
g4
F9.684375177775886
sg5
S'2016-04-03 22:31:08.299561'
p320
sa(dp321
g4
F9.551708790378902
sg5
S'2016-04-03 22:31:08.299563'
p322
sa(dp323
g4
F9.41780240441493
sg5
S'2016-04-03 22:31:08.299565'
p324
sa(dp325
g4
F9.282614481346684
sg5
S'2016-04-03 22:31:08.299570'
p326
sa(dp327
g4
F9.146101038546526
sg5
S'2016-04-03 22:31:08.299573'
p328
sa(dp329
g4
F9.008215440430579
sg5
S'2016-04-03 22:31:08.299575'
p330
sa(dp331
g4
F8.868908165896258
sg5
S'2016-04-03 22:31:08.299577'
p332
sa(dp333
g4
F8.728126548676132
sg5
S'2016-04-03 22:31:08.299579'
p334
sa(dp335
g4
F8.585814486631532
sg5
S'2016-04-03 22:31:08.299582'
p336
sa(dp337
g4
F8.441912115297926
sg5
S'2016-04-03 22:31:08.299584'
p338
sa(dp339
g4
F8.296355440131292
sg5
S'2016-04-03 22:31:08.299586'
p340
sa(dp341
g4
F8.14907592085283
sg5
S'2016-04-03 22:31:08.299588'
p342
sa(dp343
g4
F7.999999999999999
sg5
S'2016-04-03 22:31:08.299591'
p344
sa(dp345
g4
F7.849048566202033
sg5
S'2016-04-03 22:31:08.299593'
p346
sa(dp347
g4
F7.696136340726078
sg5
S'2016-04-03 22:31:08.299595'
p348
sa(dp349
g4
F7.54117117337764
sg5
S'2016-04-03 22:31:08.299598'
p350
sa(dp351
g4
F7.384053230743222
sg5
S'2016-04-03 22:31:08.299600'
p352
sa(dp353
g4
F7.224674055842075
sg5
S'2016-04-03 22:31:08.299603'
p354
sa(dp355
g4
F7.062915473248845
sg5
S'2016-04-03 22:31:08.299605'
p356
sa(dp357
g4
F6.898648307306074
sg5
S'2016-04-03 22:31:08.299607'
p358
sa(dp359
g4
F6.731730872677196
sg5
S'2016-04-03 22:31:08.299610'
p360
sa(dp361
g4
F6.5620071855158555
sg5
S'2016-04-03 22:31:08.299612'
p362
sa(dp363
g4
F6.389304828983968
sg5
S'2016-04-03 22:31:08.299614'
p364
sa(dp365
g4
F6.213432387360743
sg5
S'2016-04-03 22:31:08.299616'
p366
sa(dp367
g4
F6.034176336545163
sg5
S'2016-04-03 22:31:08.299619'
p368
sa(dp369
g4
F5.851297242409216
sg5
S'2016-04-03 22:31:08.299621'
p370
sa(dp371
g4
F5.664525067769412
sg5
S'2016-04-03 22:31:08.299623'
p372
sa(dp373
g4
F5.473553316918489
sg5
S'2016-04-03 22:31:08.299625'
p374
sa(dp375
g4
F5.278031643091577
sg5
S'2016-04-03 22:31:08.299628'
p376
sa(dp377
g4
F5.077556391987407
sg5
S'2016-04-03 22:31:08.299630'
p378
sa(dp379
g4
F4.871658325766914
sg5
S'2016-04-03 22:31:08.299632'
p380
sa(dp381
g4
F4.659786420036066
sg5
S'2016-04-03 22:31:08.299634'
p382
sa(dp383
g4
F4.44128606984584
sg5
S'2016-04-03 22:31:08.299637'
p384
sa(dp385
g4
F4.2153691330919
sg5
S'2016-04-03 22:31:08.299639'
p386
sa(dp387
g4
F3.9810717055349722
sg5
S'2016-04-03 22:31:08.299642'
p388
sa(dp389
g4
F3.7371928188465517
sg5
S'2016-04-03 22:31:08.299644'
p390
sa(dp391
g4
F3.4822022531844965
sg5
S'2016-04-03 22:31:08.299646'
p392
sa(dp393
g4
F3.2140958497160383
sg5
S'2016-04-03 22:31:08.299648'
p394
sa(dp395
g4
F2.930156051583521
sg5
S'2016-04-03 22:31:08.299651'
p396
sa(dp397
g4
F2.626527804403767
sg5
S'2016-04-03 22:31:08.299655'
p398
sa(dp399
g4
F2.2973967099940698
sg5
S'2016-04-03 22:31:08.299660'
p400
sa(dp401
g4
F1.9331820449317627
sg5
S'2016-04-03 22:31:08.299664'
p402
sa(dp403
g4
F1.515716566510398
sg5
S'2016-04-03 22:31:08.299667'
p404
sa(dp405
g4
F1.0
sg5
S'2016-04-03 22:31:08.299670'
p406
sasS'char_rnn_128'
p407
(lp408
(dp409
g4
F6.309573444801933
sg5
S'2016-04-03 22:31:08.299674'
p410
sa(dp411
g4
F6.28425902968486
sg5
S'2016-04-03 22:31:08.299676'
p412
sa(dp413
g4
F6.258790724605869
sg5
S'2016-04-03 22:31:08.299679'
p414
sa(dp415
g4
F6.23316600928143
sg5
S'2016-04-03 22:31:08.299681'
p416
sa(dp417
g4
F6.207382295661439
sg5
S'2016-04-03 22:31:08.299683'
p418
sa(dp419
g4
F6.181436925379862
sg5
S'2016-04-03 22:31:08.299686'
p420
sa(dp421
g4
F6.155327167081528
sg5
S'2016-04-03 22:31:08.299688'
p422
sa(dp423
g4
F6.129050213617685
sg5
S'2016-04-03 22:31:08.299691'
p424
sa(dp425
g4
F6.1026031791023785
sg5
S'2016-04-03 22:31:08.299693'
p426
sa(dp427
g4
F6.075983095821162
sg5
S'2016-04-03 22:31:08.299695'
p428
sa(dp429
g4
F6.049186910983
sg5
S'2016-04-03 22:31:08.299698'
p430
sa(dp431
g4
F6.022211483305613
sg5
S'2016-04-03 22:31:08.299700'
p432
sa(dp433
g4
F5.9950535794237
sg5
S'2016-04-03 22:31:08.299702'
p434
sa(dp435
g4
F5.967709870108765
sg5
S'2016-04-03 22:31:08.299705'
p436
sa(dp437
g4
F5.94017692628836
sg5
S'2016-04-03 22:31:08.299707'
p438
sa(dp439
g4
F5.9124512148516395
sg5
S'2016-04-03 22:31:08.299709'
p440
sa(dp441
g4
F5.884529094227096
sg5
S'2016-04-03 22:31:08.299712'
p442
sa(dp443
g4
F5.856406809717238
sg5
S'2016-04-03 22:31:08.299714'
p444
sa(dp445
g4
F5.828080488573741
sg5
S'2016-04-03 22:31:08.299717'
p446
sa(dp447
g4
F5.799546134795289
sg5
S'2016-04-03 22:31:08.299719'
p448
sa(dp449
g4
F5.770799623628855
sg5
S'2016-04-03 22:31:08.299721'
p450
sa(dp451
g4
F5.7418366957535865
sg5
S'2016-04-03 22:31:08.299723'
p452
sa(dp453
g4
F5.712652951124705
sg5
S'2016-04-03 22:31:08.299726'
p454
sa(dp455
g4
F5.683243842452905
sg5
S'2016-04-03 22:31:08.299728'
p456
sa(dp457
g4
F5.653604668292661
sg5
S'2016-04-03 22:31:08.299730'
p458
sa(dp459
g4
F5.623730565710474
sg5
S'2016-04-03 22:31:08.299732'
p460
sa(dp461
g4
F5.593616502501593
sg5
S'2016-04-03 22:31:08.299735'
p462
sa(dp463
g4
F5.563257268920875
sg5
S'2016-04-03 22:31:08.299737'
p464
sa(dp465
g4
F5.532647468890367
sg5
S'2016-04-03 22:31:08.299740'
p466
sa(dp467
g4
F5.501781510642736
sg5
S'2016-04-03 22:31:08.299742'
p468
sa(dp469
g4
F5.470653596755839
sg5
S'2016-04-03 22:31:08.299744'
p470
sa(dp471
g4
F5.439257713529523
sg5
S'2016-04-03 22:31:08.299747'
p472
sa(dp473
g4
F5.407587619651025
sg5
S'2016-04-03 22:31:08.299749'
p474
sa(dp475
g4
F5.375636834090112
sg5
S'2016-04-03 22:31:08.299751'
p476
sa(dp477
g4
F5.3433986231592865
sg5
S'2016-04-03 22:31:08.299763'
p478
sa(dp479
g4
F5.310865986667879
sg5
S'2016-04-03 22:31:08.299765'
p480
sa(dp481
g4
F5.278031643091578
sg5
S'2016-04-03 22:31:08.299767'
p482
sa(dp483
g4
F5.24488801367084
sg5
S'2016-04-03 22:31:08.299780'
p484
sa(dp485
g4
F5.211427205342488
sg5
S'2016-04-03 22:31:08.299783'
p486
sa(dp487
g4
F5.177640992398568
sg5
S'2016-04-03 22:31:08.299785'
p488
sa(dp489
g4
F5.143520796755042
sg5
S'2016-04-03 22:31:08.299787'
p490
sa(dp491
g4
F5.109057666699868
sg5
S'2016-04-03 22:31:08.299789'
p492
sa(dp493
g4
F5.074242253975383
sg5
S'2016-04-03 22:31:08.299792'
p494
sa(dp495
g4
F5.039064789033284
sg5
S'2016-04-03 22:31:08.299794'
p496
sa(dp497
g4
F5.003515054281688
sg5
S'2016-04-03 22:31:08.299806'
p498
sa(dp499
g4
F4.967582355122337
sg5
S'2016-04-03 22:31:08.299809'
p500
sa(dp501
g4
F4.9312554885516775
sg5
S'2016-04-03 22:31:08.299811'
p502
sa(dp503
g4
F4.894522709071677
sg5
S'2016-04-03 22:31:08.299813'
p504
sa(dp505
g4
F4.857371691624451
sg5
S'2016-04-03 22:31:08.299825'
p506
sa(dp507
g4
F4.8197894912282235
sg5
S'2016-04-03 22:31:08.299828'
p508
sa(dp509
g4
F4.781762498950186
sg5
S'2016-04-03 22:31:08.299830'
p510
sa(dp511
g4
F4.743276393803367
sg5
S'2016-04-03 22:31:08.299832'
p512
sa(dp513
g4
F4.704316090098695
sg5
S'2016-04-03 22:31:08.299835'
p514
sa(dp515
g4
F4.664865679718495
sg5
S'2016-04-03 22:31:08.299837'
p516
sa(dp517
g4
F4.624908368702249
sg5
S'2016-04-03 22:31:08.299841'
p518
sa(dp519
g4
F4.584426407447396
sg5
S'2016-04-03 22:31:08.299846'
p520
sa(dp521
g4
F4.5434010137249805
sg5
S'2016-04-03 22:31:08.299850'
p522
sa(dp523
g4
F4.501812287589042
sg5
S'2016-04-03 22:31:08.299852'
p524
sa(dp525
g4
F4.459639117116218
sg5
S'2016-04-03 22:31:08.299854'
p526
sa(dp527
g4
F4.416859073743617
sg5
S'2016-04-03 22:31:08.299857'
p528
sa(dp529
g4
F4.3734482957731124
sg5
S'2016-04-03 22:31:08.299859'
p530
sa(dp531
g4
F4.329381358372115
sg5
S'2016-04-03 22:31:08.299862'
p532
sa(dp533
g4
F4.284631128115855
sg5
S'2016-04-03 22:31:08.299864'
p534
sa(dp535
g4
F4.239168599773809
sg5
S'2016-04-03 22:31:08.299866'
p536
sa(dp537
g4
F4.192962712629476
sg5
S'2016-04-03 22:31:08.299868'
p538
sa(dp539
g4
F4.14598014312126
sg5
S'2016-04-03 22:31:08.299871'
p540
sa(dp541
g4
F4.0981850699807945
sg5
S'2016-04-03 22:31:08.299873'
p542
sa(dp543
g4
F4.049538907295691
sg5
S'2016-04-03 22:31:08.299875'
p544
sa(dp545
g4
F4.0
sg5
S'2016-04-03 22:31:08.299878'
p546
sa(dp547
g4
F3.9495232751502978
sg5
S'2016-04-03 22:31:08.299880'
p548
sa(dp549
g4
F3.8980598409161895
sg5
S'2016-04-03 22:31:08.299882'
p550
sa(dp551
g4
F3.845556523418775
sg5
S'2016-04-03 22:31:08.299885'
p552
sa(dp553
g4
F3.7919553292794634
sg5
S'2016-04-03 22:31:08.299887'
p554
sa(dp555
g4
F3.737192818846552
sg5
S'2016-04-03 22:31:08.299890'
p556
sa(dp557
g4
F3.6811993713469082
sg5
S'2016-04-03 22:31:08.299892'
p558
sa(dp559
g4
F3.623898318388478
sg5
S'2016-04-03 22:31:08.299895'
p560
sa(dp561
g4
F3.565204915932007
sg5
S'2016-04-03 22:31:08.299899'
p562
sa(dp563
g4
F3.5050251165172894
sg5
S'2016-04-03 22:31:08.299901'
p564
sa(dp565
g4
F3.4432540924015447
sg5
S'2016-04-03 22:31:08.299904'
p566
sa(dp567
g4
F3.379774445235429
sg5
S'2016-04-03 22:31:08.299906'
p568
sa(dp569
g4
F3.3144540173399872
sg5
S'2016-04-03 22:31:08.299908'
p570
sa(dp571
g4
F3.2471431911356685
sg5
S'2016-04-03 22:31:08.299910'
p572
sa(dp573
g4
F3.177671523146437
sg5
S'2016-04-03 22:31:08.299913'
p574
sa(dp575
g4
F3.1058435015977324
sg5
S'2016-04-03 22:31:08.299925'
p576
sa(dp577
g4
F3.0314331330207964
sg5
S'2016-04-03 22:31:08.299927'
p578
sa(dp579
g4
F2.9541769390627777
sg5
S'2016-04-03 22:31:08.299929'
p580
sa(dp581
g4
F2.8737647560281374
sg5
S'2016-04-03 22:31:08.299932'
p582
sa(dp583
g4
F2.789827435889086
sg5
S'2016-04-03 22:31:08.299934'
p584
sa(dp585
g4
F2.701920077041227
sg5
S'2016-04-03 22:31:08.299936'
p586
sa(dp587
g4
F2.6094986352788734
sg5
S'2016-04-03 22:31:08.299952'
p588
sa(dp589
g4
F2.51188643150958
sg5
S'2016-04-03 22:31:08.299955'
p590
sa(dp591
g4
F2.4082246852806923
sg5
S'2016-04-03 22:31:08.299957'
p592
sa(dp593
g4
F2.29739670999407
sg5
S'2016-04-03 22:31:08.299960'
p594
sa(dp595
g4
F2.17790642448278
sg5
S'2016-04-03 22:31:08.299962'
p596
sa(dp597
g4
F2.0476725110792193
sg5
S'2016-04-03 22:31:08.299964'
p598
sa(dp599
g4
F1.9036539387158786
sg5
S'2016-04-03 22:31:08.299967'
p600
sa(dp601
g4
F1.7411011265922482
sg5
S'2016-04-03 22:31:08.299969'
p602
sa(dp603
g4
F1.5518455739153598
sg5
S'2016-04-03 22:31:08.299971'
p604
sa(dp605
g4
F1.3195079107728942
sg5
S'2016-04-03 22:31:08.299973'
p606
sa(dp607
g4
F1.0
sg5
S'2016-04-03 22:31:08.299976'
p608
sas.